target datalayout = "e-m:e-p270:32:32-p271:32:32-p272:64:64-i64:64-i128:128-f80:128-n8:16:32:64-S128"
target triple = "x86_64-pc-linux-gnu"

%union.ListCell = type { ptr }
%struct.List = type { i32, i32, i32, ptr, [0 x %union.ListCell] }
%struct.ForEachState = type { ptr, i32 }

; Function Attrs: inlinehint nounwind uwtable
define internal i32 @pg_leftmost_one_pos32(i32 noundef %0) #3 {
  %2 = alloca i32, align 4
  store i32 %0, ptr %2, align 4
  %3 = load i32, ptr %2, align 4
  %4 = call i32 @llvm.ctlz.i32(i32 %3, i1 true)
  %5 = sub i32 31, %4
  ret i32 %5
}

; Function Attrs: inlinehint nounwind uwtable
define internal i32 @pg_nextpower2_32(i32 noundef %0) #3 {
  %2 = alloca i32, align 4
  %3 = alloca i32, align 4
  store i32 %0, ptr %3, align 4
  %4 = load i32, ptr %3, align 4
  %5 = load i32, ptr %3, align 4
  %6 = sub i32 %5, 1
  %7 = and i32 %4, %6
  %8 = icmp eq i32 %7, 0
  br i1 %8, label %9, label %11

9:                                                ; preds = %1
  %10 = load i32, ptr %3, align 4
  store i32 %10, ptr %2, align 4
  br label %16

11:                                               ; preds = %1
  %12 = load i32, ptr %3, align 4
  %13 = call i32 @pg_leftmost_one_pos32(i32 noundef %12)
  %14 = add i32 %13, 1
  %15 = shl i32 1, %14
  store i32 %15, ptr %2, align 4
  br label %16

16:                                               ; preds = %11, %9
  %17 = load i32, ptr %2, align 4
  ret i32 %17
}

; Function Attrs: nounwind uwtable
define internal ptr @new_list(i32 noundef %0, i32 noundef %1) #0 {
  %3 = alloca i32, align 4
  %4 = alloca i32, align 4
  %5 = alloca ptr, align 8
  %6 = alloca i32, align 4
  store i32 %0, ptr %3, align 4
  store i32 %1, ptr %4, align 4
  call void @llvm.lifetime.start.p0(i64 8, ptr %5) #7
  call void @llvm.lifetime.start.p0(i64 4, ptr %6) #7
  %7 = load i32, ptr %4, align 4
  %8 = add i32 %7, 3
  %9 = icmp sgt i32 8, %8
  br i1 %9, label %10, label %11

10:                                               ; preds = %2
  br label %14

11:                                               ; preds = %2
  %12 = load i32, ptr %4, align 4
  %13 = add i32 %12, 3
  br label %14

14:                                               ; preds = %11, %10
  %15 = phi i32 [ 8, %10 ], [ %13, %11 ]
  %16 = call i32 @pg_nextpower2_32(i32 noundef %15)
  store i32 %16, ptr %6, align 4
  %17 = load i32, ptr %6, align 4
  %18 = sub i32 %17, 3
  store i32 %18, ptr %6, align 4
  %19 = load i32, ptr %6, align 4
  %20 = sext i32 %19 to i64
  %21 = mul i64 %20, 8
  %22 = add i64 24, %21
  %23 = call ptr @palloc(i64 noundef %22)
  store ptr %23, ptr %5, align 8
  %24 = load i32, ptr %3, align 4
  %25 = load ptr, ptr %5, align 8
  %26 = getelementptr inbounds nuw %struct.List, ptr %25, i32 0, i32 0
  store i32 %24, ptr %26, align 8
  %27 = load i32, ptr %4, align 4
  %28 = load ptr, ptr %5, align 8
  %29 = getelementptr inbounds nuw %struct.List, ptr %28, i32 0, i32 1
  store i32 %27, ptr %29, align 4
  %30 = load i32, ptr %6, align 4
  %31 = load ptr, ptr %5, align 8
  %32 = getelementptr inbounds nuw %struct.List, ptr %31, i32 0, i32 2
  store i32 %30, ptr %32, align 8
  %33 = load ptr, ptr %5, align 8
  %34 = getelementptr inbounds nuw %struct.List, ptr %33, i32 0, i32 4
  %35 = getelementptr inbounds [0 x %union.ListCell], ptr %34, i64 0, i64 0
  %36 = load ptr, ptr %5, align 8
  %37 = getelementptr inbounds nuw %struct.List, ptr %36, i32 0, i32 3
  store ptr %35, ptr %37, align 8
  %38 = load ptr, ptr %5, align 8
  call void @llvm.lifetime.end.p0(i64 4, ptr %6) #7
  call void @llvm.lifetime.end.p0(i64 8, ptr %5) #7
  ret ptr %38
}

; Function Attrs: nounwind uwtable
define dso_local zeroext i1 @list_member_oid(ptr noundef %0, i32 noundef %1) #0 {
  %3 = alloca i1, align 1
  %4 = alloca ptr, align 8
  %5 = alloca i32, align 4
  %6 = alloca ptr, align 8
  %7 = alloca %struct.ForEachState, align 8
  %8 = alloca i32, align 4
  store ptr %0, ptr %4, align 8
  store i32 %1, ptr %5, align 4
  call void @llvm.lifetime.start.p0(i64 8, ptr %6) #7
  call void @llvm.lifetime.start.p0(i64 16, ptr %7) #7
  %9 = getelementptr inbounds nuw %struct.ForEachState, ptr %7, i32 0, i32 0
  %10 = load ptr, ptr %4, align 8
  store ptr %10, ptr %9, align 8
  %11 = getelementptr inbounds nuw %struct.ForEachState, ptr %7, i32 0, i32 1
  store i32 0, ptr %11, align 8
  %12 = getelementptr i8, ptr %7, i64 12
  call void @llvm.memset.p0.i64(ptr align 4 %12, i8 0, i64 4, i1 false)
  br label %13

13:                                               ; preds = %46, %2
  %14 = getelementptr inbounds nuw %struct.ForEachState, ptr %7, i32 0, i32 0
  %15 = load ptr, ptr %14, align 8
  %16 = icmp ne ptr %15, null
  br i1 %16, label %17, label %34

17:                                               ; preds = %13
  %18 = getelementptr inbounds nuw %struct.ForEachState, ptr %7, i32 0, i32 1
  %19 = load i32, ptr %18, align 8
  %20 = getelementptr inbounds nuw %struct.ForEachState, ptr %7, i32 0, i32 0
  %21 = load ptr, ptr %20, align 8
  %22 = getelementptr inbounds nuw %struct.List, ptr %21, i32 0, i32 1
  %23 = load i32, ptr %22, align 4
  %24 = icmp slt i32 %19, %23
  br i1 %24, label %25, label %34

25:                                               ; preds = %17
  %26 = getelementptr inbounds nuw %struct.ForEachState, ptr %7, i32 0, i32 0
  %27 = load ptr, ptr %26, align 8
  %28 = getelementptr inbounds nuw %struct.List, ptr %27, i32 0, i32 3
  %29 = load ptr, ptr %28, align 8
  %30 = getelementptr inbounds nuw %struct.ForEachState, ptr %7, i32 0, i32 1
  %31 = load i32, ptr %30, align 8
  %32 = sext i32 %31 to i64
  %33 = getelementptr inbounds %union.ListCell, ptr %29, i64 %32
  store ptr %33, ptr %6, align 8
  br label %35

34:                                               ; preds = %17, %13
  store ptr null, ptr %6, align 8
  br label %35

35:                                               ; preds = %34, %25
  %36 = phi i32 [ 1, %25 ], [ 0, %34 ]
  %37 = icmp ne i32 %36, 0
  br i1 %37, label %39, label %38

38:                                               ; preds = %35
  store i32 2, ptr %8, align 4
  br label %50

39:                                               ; preds = %35
  %40 = load ptr, ptr %6, align 8
  %41 = load i32, ptr %40, align 8
  %42 = load i32, ptr %5, align 4
  %43 = icmp eq i32 %41, %42
  br i1 %43, label %44, label %45

44:                                               ; preds = %39
  store i1 true, ptr %3, align 1
  store i32 1, ptr %8, align 4
  br label %50

45:                                               ; preds = %39
  br label %46

46:                                               ; preds = %45
  %47 = getelementptr inbounds nuw %struct.ForEachState, ptr %7, i32 0, i32 1
  %48 = load i32, ptr %47, align 8
  %49 = add i32 %48, 1
  store i32 %49, ptr %47, align 8
  br label %13, !llvm.loop !8

50:                                               ; preds = %44, %38
  call void @llvm.lifetime.end.p0(i64 16, ptr %7) #7
  %51 = load i32, ptr %8, align 4
  switch i32 %51, label %53 [
    i32 2, label %52
  ]

52:                                               ; preds = %50
  store i1 false, ptr %3, align 1
  store i32 1, ptr %8, align 4
  br label %53

53:                                               ; preds = %52, %50
  call void @llvm.lifetime.end.p0(i64 8, ptr %6) #7
  %54 = load i1, ptr %3, align 1
  ret i1 %54
}

; Function Attrs: nounwind uwtable
define dso_local ptr @list_copy(ptr noundef %0) #0 {
  %2 = alloca ptr, align 8
  %3 = alloca ptr, align 8
  %4 = alloca ptr, align 8
  %5 = alloca i32, align 4
  store ptr %0, ptr %3, align 8
  call void @llvm.lifetime.start.p0(i64 8, ptr %4) #7
  %6 = load ptr, ptr %3, align 8
  %7 = icmp eq ptr %6, null
  br i1 %7, label %8, label %9

8:                                                ; preds = %1
  store ptr null, ptr %2, align 8
  store i32 1, ptr %5, align 4
  br label %29

9:                                                ; preds = %1
  %10 = load ptr, ptr %3, align 8
  %11 = getelementptr inbounds nuw %struct.List, ptr %10, i32 0, i32 0
  %12 = load i32, ptr %11, align 8
  %13 = load ptr, ptr %3, align 8
  %14 = getelementptr inbounds nuw %struct.List, ptr %13, i32 0, i32 1
  %15 = load i32, ptr %14, align 4
  %16 = call ptr @new_list(i32 noundef %12, i32 noundef %15)
  store ptr %16, ptr %4, align 8
  %17 = load ptr, ptr %4, align 8
  %18 = getelementptr inbounds nuw %struct.List, ptr %17, i32 0, i32 3
  %19 = load ptr, ptr %18, align 8
  %20 = load ptr, ptr %3, align 8
  %21 = getelementptr inbounds nuw %struct.List, ptr %20, i32 0, i32 3
  %22 = load ptr, ptr %21, align 8
  %23 = load ptr, ptr %4, align 8
  %24 = getelementptr inbounds nuw %struct.List, ptr %23, i32 0, i32 1
  %25 = load i32, ptr %24, align 4
  %26 = sext i32 %25 to i64
  %27 = mul i64 %26, 8
  call void @llvm.memcpy.p0.p0.i64(ptr align 8 %19, ptr align 8 %22, i64 %27, i1 false)
  %28 = load ptr, ptr %4, align 8
  store ptr %28, ptr %2, align 8
  store i32 1, ptr %5, align 4
  br label %29

29:                                               ; preds = %9, %8
  call void @llvm.lifetime.end.p0(i64 8, ptr %4) #7
  %30 = load ptr, ptr %2, align 8
  ret ptr %30
}

; Function Attrs: nounwind uwtable
define dso_local ptr @list_difference_oid(ptr noundef %0, ptr noundef %1) #0 {
  %3 = alloca ptr, align 8
  %4 = alloca ptr, align 8
  %5 = alloca ptr, align 8
  %6 = alloca ptr, align 8
  %7 = alloca ptr, align 8
  %8 = alloca i32, align 4
  %9 = alloca %struct.ForEachState, align 8
  store ptr %0, ptr %4, align 8
  store ptr %1, ptr %5, align 8
  call void @llvm.lifetime.start.p0(i64 8, ptr %6) #7
  call void @llvm.lifetime.start.p0(i64 8, ptr %7) #7
  store ptr null, ptr %7, align 8
  %10 = load ptr, ptr %5, align 8
  %11 = icmp eq ptr %10, null
  br i1 %11, label %12, label %15

12:                                               ; preds = %2
  %13 = load ptr, ptr %4, align 8
  %14 = call ptr @list_copy(ptr noundef %13)
  store ptr %14, ptr %3, align 8
  store i32 1, ptr %8, align 4
  br label %63

15:                                               ; preds = %2
  call void @llvm.lifetime.start.p0(i64 16, ptr %9) #7
  %16 = getelementptr inbounds nuw %struct.ForEachState, ptr %9, i32 0, i32 0
  %17 = load ptr, ptr %4, align 8
  store ptr %17, ptr %16, align 8
  %18 = getelementptr inbounds nuw %struct.ForEachState, ptr %9, i32 0, i32 1
  store i32 0, ptr %18, align 8
  %19 = getelementptr i8, ptr %9, i64 12
  call void @llvm.memset.p0.i64(ptr align 4 %19, i8 0, i64 4, i1 false)
  br label %20

20:                                               ; preds = %57, %15
  %21 = getelementptr inbounds nuw %struct.ForEachState, ptr %9, i32 0, i32 0
  %22 = load ptr, ptr %21, align 8
  %23 = icmp ne ptr %22, null
  br i1 %23, label %24, label %41

24:                                               ; preds = %20
  %25 = getelementptr inbounds nuw %struct.ForEachState, ptr %9, i32 0, i32 1
  %26 = load i32, ptr %25, align 8
  %27 = getelementptr inbounds nuw %struct.ForEachState, ptr %9, i32 0, i32 0
  %28 = load ptr, ptr %27, align 8
  %29 = getelementptr inbounds nuw %struct.List, ptr %28, i32 0, i32 1
  %30 = load i32, ptr %29, align 4
  %31 = icmp slt i32 %26, %30
  br i1 %31, label %32, label %41

32:                                               ; preds = %24
  %33 = getelementptr inbounds nuw %struct.ForEachState, ptr %9, i32 0, i32 0
  %34 = load ptr, ptr %33, align 8
  %35 = getelementptr inbounds nuw %struct.List, ptr %34, i32 0, i32 3
  %36 = load ptr, ptr %35, align 8
  %37 = getelementptr inbounds nuw %struct.ForEachState, ptr %9, i32 0, i32 1
  %38 = load i32, ptr %37, align 8
  %39 = sext i32 %38 to i64
  %40 = getelementptr inbounds %union.ListCell, ptr %36, i64 %39
  store ptr %40, ptr %6, align 8
  br label %42

41:                                               ; preds = %24, %20
  store ptr null, ptr %6, align 8
  br label %42

42:                                               ; preds = %41, %32
  %43 = phi i32 [ 1, %32 ], [ 0, %41 ]
  %44 = icmp ne i32 %43, 0
  br i1 %44, label %46, label %45

45:                                               ; preds = %42
  store i32 2, ptr %8, align 4
  call void @llvm.lifetime.end.p0(i64 16, ptr %9) #7
  br label %61

46:                                               ; preds = %42
  %47 = load ptr, ptr %5, align 8
  %48 = load ptr, ptr %6, align 8
  %49 = load i32, ptr %48, align 8
  %50 = call zeroext i1 @list_member_oid(ptr noundef %47, i32 noundef %49)
  br i1 %50, label %56, label %51

51:                                               ; preds = %46
  %52 = load ptr, ptr %7, align 8
  %53 = load ptr, ptr %6, align 8
  %54 = load i32, ptr %53, align 8
  %55 = call ptr @lappend_oid(ptr noundef %52, i32 noundef %54)
  store ptr %55, ptr %7, align 8
  br label %56

56:                                               ; preds = %51, %46
  br label %57

57:                                               ; preds = %56
  %58 = getelementptr inbounds nuw %struct.ForEachState, ptr %9, i32 0, i32 1
  %59 = load i32, ptr %58, align 8
  %60 = add i32 %59, 1
  store i32 %60, ptr %58, align 8
  br label %20, !llvm.loop !23

61:                                               ; preds = %45
  %62 = load ptr, ptr %7, align 8
  store ptr %62, ptr %3, align 8
  store i32 1, ptr %8, align 4
  br label %63

63:                                               ; preds = %61, %12
  call void @llvm.lifetime.end.p0(i64 8, ptr %7) #7
  call void @llvm.lifetime.end.p0(i64 8, ptr %6) #7
  %64 = load ptr, ptr %3, align 8
  ret ptr %64
}