; Function Attrs: nounwind uwtable
define dso_local ptr @list_difference_oid(ptr noundef readonly captures(address_is_null) %0, ptr noundef readonly captures(address_is_null) %1) local_unnamed_addr #0 {
  %3 = icmp eq ptr %1, null
  br i1 %3, label %10, label %.preheader

.preheader:                                       ; preds = %2
  %4 = getelementptr inbounds nuw i8, ptr %0, i64 4
  %.not = icmp eq ptr %0, null
  br i1 %.not, label %list_copy.exit, label %.lr.ph

.lr.ph:                                           ; preds = %.preheader
  %5 = getelementptr inbounds nuw i8, ptr %0, i64 16
  %6 = getelementptr inbounds nuw i8, ptr %1, i64 4
  %7 = getelementptr inbounds nuw i8, ptr %1, i64 16
  %8 = load i32, ptr %4, align 4
  %9 = icmp sgt i32 %8, 0
  br i1 %9, label %.lr.ph.i, label %list_copy.exit

10:                                               ; preds = %2
  %11 = icmp eq ptr %0, null
  br i1 %11, label %list_copy.exit, label %12

12:                                               ; preds = %10
  %13 = load i32, ptr %0, align 8
  %14 = getelementptr inbounds nuw i8, ptr %0, i64 4
  %15 = load i32, ptr %14, align 4
  %16 = add i32 %15, 3
  %17 = tail call i32 @llvm.smax.i32(i32 %16, i32 8)
  %18 = tail call range(i32 1, 32) i32 @llvm.ctpop.i32(i32 %17)
  %19 = icmp samesign ult i32 %18, 2
  %20 = tail call range(i32 0, 33) i32 @llvm.ctlz.i32(i32 %17, i1 true)
  %21 = xor i32 %20, 31
  %22 = shl nuw i32 2, %21
  %.0.i.i.i = select i1 %19, i32 %17, i32 %22
  %23 = add i32 %.0.i.i.i, -3
  %24 = zext nneg i32 %23 to i64
  %25 = shl nuw nsw i64 %24, 3
  %26 = add nuw nsw i64 %25, 24
  %27 = tail call ptr @palloc(i64 noundef %26) #9
  store i32 %13, ptr %27, align 8
  %28 = getelementptr inbounds nuw i8, ptr %27, i64 4
  store i32 %15, ptr %28, align 4
  %29 = getelementptr inbounds nuw i8, ptr %27, i64 8
  store i32 %23, ptr %29, align 8
  %30 = getelementptr inbounds nuw i8, ptr %27, i64 24
  %31 = getelementptr inbounds nuw i8, ptr %27, i64 16
  store ptr %30, ptr %31, align 8
  %32 = getelementptr inbounds nuw i8, ptr %0, i64 16
  %33 = load ptr, ptr %32, align 8
  %34 = sext i32 %15 to i64
  %35 = shl nsw i64 %34, 3
  tail call void @llvm.memcpy.p0.p0.i64(ptr nonnull align 8 %30, ptr align 8 %33, i64 %35, i1 false)
  br label %list_copy.exit

.lr.ph.i:                                         ; preds = %.lr.ph, %list_member_oid.exit
  %36 = phi i32 [ %49, %list_member_oid.exit ], [ %8, %.lr.ph ]
  %indvars.iv = phi i64 [ %indvars.iv.next, %list_member_oid.exit ], [ 0, %.lr.ph ]
  %.0142127 = phi ptr [ %.1, %list_member_oid.exit ], [ null, %.lr.ph ]
  %37 = load ptr, ptr %5, align 8
  %38 = getelementptr inbounds nuw %union.ListCell, ptr %37, i64 %indvars.iv
  %39 = load i32, ptr %38, align 8
  %40 = load i32, ptr %6, align 4
  %41 = icmp sgt i32 %40, 0
  br i1 %41, label %.lr.ph23.i, label %.loopexit

.lr.ph23.i:                                       ; preds = %.lr.ph.i
  %42 = load ptr, ptr %7, align 8
  %wide.trip.count.i = zext nneg i32 %40 to i64
  br label %44

43:                                               ; preds = %44
  %indvars.iv.next.i = add nuw nsw i64 %indvars.iv.i, 1
  %exitcond.not.i = icmp eq i64 %indvars.iv.next.i, %wide.trip.count.i
  br i1 %exitcond.not.i, label %.loopexit, label %44

44:                                               ; preds = %43, %.lr.ph23.i
  %indvars.iv.i = phi i64 [ 0, %.lr.ph23.i ], [ %indvars.iv.next.i, %43 ]
  %45 = getelementptr inbounds nuw %union.ListCell, ptr %42, i64 %indvars.iv.i
  %46 = load i32, ptr %45, align 8
  %47 = icmp eq i32 %46, %39
  br i1 %47, label %list_member_oid.exit, label %43

.loopexit:                                        ; preds = %43, %.lr.ph.i
  %48 = tail call ptr @lappend_oid(ptr noundef %.0142127, i32 noundef %39)
  %.pre = load i32, ptr %4, align 4
  br label %list_member_oid.exit

list_member_oid.exit:                             ; preds = %44, %.loopexit
  %49 = phi i32 [ %.pre, %.loopexit ], [ %36, %44 ]
  %.1 = phi ptr [ %48, %.loopexit ], [ %.0142127, %44 ]
  %indvars.iv.next = add nuw nsw i64 %indvars.iv, 1
  %50 = sext i32 %49 to i64
  %51 = icmp slt i64 %indvars.iv.next, %50
  br i1 %51, label %.lr.ph.i, label %list_copy.exit

list_copy.exit:                                   ; preds = %list_member_oid.exit, %.preheader, %.lr.ph, %12, %10
  %.0 = phi ptr [ %27, %12 ], [ null, %10 ], [ null, %.preheader ], [ null, %.lr.ph ], [ %.1, %list_member_oid.exit ]
  ret ptr %.0
}